; Function Attrs: nounwind uwtable
define internal range(i32 -2147483648, 1) i32 @send_startup_packet(ptr noundef %0) #0 {
  %2 = alloca %struct.FFIOContext, align 8
  %3 = alloca [256 x i8], align 16
  call void @llvm.lifetime.start.p0(i64 256, ptr nonnull %3) #7
  %4 = getelementptr inbounds nuw i8, ptr %0, i64 66380
  %5 = call i32 (ptr, i64, ptr, ...) @snprintf(ptr noundef nonnull dereferenceable(1) %3, i64 noundef 256, ptr noundef nonnull @.str.22, ptr noundef nonnull @.str.23, ptr noundef nonnull %4) #7
  %6 = getelementptr inbounds nuw i8, ptr %0, i64 24
  %7 = getelementptr inbounds nuw i8, ptr %0, i64 16
  store i32 1, ptr %6, align 1, !tbaa !36
  %8 = getelementptr inbounds nuw i8, ptr %0, i64 28
  store i32 -1341392178, ptr %8, align 1, !tbaa !36
  %9 = getelementptr inbounds nuw i8, ptr %0, i64 32
  store i32 0, ptr %9, align 1, !tbaa !36
  %10 = getelementptr inbounds nuw i8, ptr %0, i64 36
  store i32 542330189, ptr %10, align 1, !tbaa !36
  %11 = getelementptr inbounds nuw i8, ptr %0, i64 40
  store i32 0, ptr %11, align 1, !tbaa !36
  %12 = getelementptr inbounds nuw i8, ptr %0, i64 44
  %13 = getelementptr inbounds nuw i8, ptr %0, i64 66120
  %14 = load i32, ptr %13, align 8, !tbaa !37
  %15 = add nsw i32 %14, 1
  store i32 %15, ptr %13, align 8, !tbaa !37
  store i32 %14, ptr %12, align 1, !tbaa !36
  %16 = getelementptr inbounds nuw i8, ptr %0, i64 48
  store i64 0, ptr %16, align 1, !tbaa !36
  %17 = getelementptr inbounds nuw i8, ptr %0, i64 56
  store i32 0, ptr %17, align 1, !tbaa !36
  %18 = getelementptr inbounds nuw i8, ptr %0, i64 60
  store i16 1, ptr %18, align 1, !tbaa !36
  %19 = getelementptr inbounds nuw i8, ptr %0, i64 62
  store i16 3, ptr %19, align 1, !tbaa !36
  %20 = getelementptr inbounds nuw i8, ptr %0, i64 64
  store i32 0, ptr %20, align 1, !tbaa !36
  %21 = getelementptr inbounds nuw i8, ptr %0, i64 68
  store i32 262155, ptr %21, align 1, !tbaa !36
  %22 = getelementptr inbounds nuw i8, ptr %0, i64 72
  store i32 196636, ptr %22, align 1, !tbaa !36
  %23 = getelementptr inbounds nuw i8, ptr %0, i64 76
  store ptr %23, ptr %7, align 8, !tbaa !38
  call void @llvm.lifetime.start.p0(i64 280, ptr nonnull %2) #7
  call void @ffio_init_write_context(ptr noundef nonnull %2, ptr noundef nonnull %23, i32 noundef 460) #7
  %24 = call i32 @avio_put_str16le(ptr noundef nonnull %2, ptr noundef nonnull %3) #7
  %25 = icmp slt i32 %24, 0
  br i1 %25, label %mms_put_utf16.exit.thread, label %26

mms_put_utf16.exit.thread:                        ; preds = %1
  call void @llvm.lifetime.end.p0(i64 280, ptr nonnull %2) #7
  br label %send_command_packet.exit

26:                                               ; preds = %1
  %27 = ptrtoint ptr %6 to i64
  %28 = load ptr, ptr %7, align 8, !tbaa !41
  %29 = zext nneg i32 %24 to i64
  %30 = getelementptr inbounds nuw i8, ptr %28, i64 %29
  store ptr %30, ptr %7, align 8, !tbaa !41
  call void @llvm.lifetime.end.p0(i64 280, ptr nonnull %2) #7
  %31 = ptrtoint ptr %30 to i64
  %32 = sub i64 %31, %27
  %33 = trunc i64 %32 to i32
  %34 = add nsw i32 %33, 7
  %35 = and i32 %34, -8
  %36 = add nsw i32 %35, -16
  %37 = ashr exact i32 %36, 3
  store i32 %36, ptr %9, align 1, !tbaa !36
  store i32 %37, ptr %11, align 1, !tbaa !36
  %38 = add nsw i32 %37, -2
  store i32 %38, ptr %17, align 1, !tbaa !36
  %39 = sub nsw i32 %35, %33
  %40 = sext i32 %39 to i64
  call void @llvm.memset.p0.i64(ptr align 1 %30, i8 0, i64 %40, i1 false)
  %41 = load ptr, ptr %0, align 8, !tbaa !31
  %42 = call i32 @ffurl_write2(ptr noundef %41, ptr noundef nonnull %6, i32 noundef range(i32 0, -7) %35) #7
  %.not.i = icmp eq i32 %42, %35
  br i1 %.not.i, label %send_command_packet.exit, label %43

43:                                               ; preds = %26
  %44 = load ptr, ptr %0, align 8, !tbaa !31
  %45 = icmp slt i32 %42, 0
  br i1 %45, label %46, label %49

46:                                               ; preds = %43
  %47 = sub nsw i32 0, %42
  %48 = call ptr @strerror(i32 noundef %47) #7
  br label %49

49:                                               ; preds = %46, %43
  %50 = phi ptr [ %48, %46 ], [ @.str.11, %43 ]
  call void (ptr, i32, ptr, ...) @av_log(ptr noundef %44, i32 noundef 16, ptr noundef nonnull @.str.19, i32 noundef %35, i32 noundef %42, ptr noundef %50) #7
  br label %send_command_packet.exit

send_command_packet.exit:                         ; preds = %49, %26, %mms_put_utf16.exit.thread
  %.0 = phi i32 [ %24, %mms_put_utf16.exit.thread ], [ -5, %49 ], [ 0, %26 ]
  call void @llvm.lifetime.end.p0(i64 256, ptr nonnull %3) #7
  ret i32 %.0
}